target datalayout = "e-m:e-p270:32:32-p271:32:32-p272:64:64-i64:64-i128:128-f80:128-n8:16:32:64-S128"
target triple = "x86_64-pc-linux-gnu"

; Function Attrs: nounwind uwtable
define internal i32 @rsa_check_key_type(ptr noundef %0, i32 noundef %1) #0 {
  %3 = alloca i32, align 4
  %4 = alloca ptr, align 8
  %5 = alloca i32, align 4
  store ptr %0, ptr %4, align 8, !tbaa !3
  store i32 %1, ptr %5, align 4, !tbaa !25
  %6 = load ptr, ptr %4, align 8, !tbaa !3
  %7 = call i32 @RSA_test_flags(ptr noundef %6, i32 noundef 61440)
  switch i32 %7, label %16 [
    i32 0, label %8
    i32 4096, label %12
  ]

8:                                                ; preds = %2
  %9 = load i32, ptr %5, align 4, !tbaa !25
  %10 = icmp eq i32 %9, 6
  %11 = zext i1 %10 to i32
  store i32 %11, ptr %3, align 4
  br label %17

12:                                               ; preds = %2
  %13 = load i32, ptr %5, align 4, !tbaa !25
  %14 = icmp eq i32 %13, 912
  %15 = zext i1 %14 to i32
  store i32 %15, ptr %3, align 4
  br label %17

16:                                               ; preds = %2
  store i32 0, ptr %3, align 4
  br label %17

17:                                               ; preds = %16, %12, %8
  %18 = load i32, ptr %3, align 4
  ret i32 %18
}