; Function Attrs: nounwind uwtable
define internal range(i32 0, 2) i32 @rsa_check_key_type(ptr noundef %0, i32 noundef %1) #0 {
  %3 = tail call i32 @RSA_test_flags(ptr noundef %0, i32 noundef 61440) #5
  switch i32 %3, label %8 [
    i32 0, label %4
    i32 4096, label %6
  ]

4:                                                ; preds = %2
  %5 = icmp eq i32 %1, 6
  br label %8

6:                                                ; preds = %2
  %7 = icmp eq i32 %1, 912
  br label %8

8:                                                ; preds = %2, %6, %4
  %.0.shrunk = phi i1 [ %7, %6 ], [ %5, %4 ], [ false, %2 ]
  %.0 = zext i1 %.0.shrunk to i32
  ret i32 %.0
}